target datalayout = "e-m:e-p270:32:32-p271:32:32-p272:64:64-i64:64-i128:128-f80:128-n8:16:32:64-S128"
target triple = "x86_64-pc-linux-gnu"

%struct.subframe_stats_t = type { [65535 x %struct.pair_t], i32, i32, i32, double, double, double, double, double }
%struct.pair_t = type { i32, i32 }
%struct.analysis_options = type { i32, i32 }

@all_ = internal global %struct.subframe_stats_t zeroinitializer, align 8
@.str.15 = private unnamed_addr constant [4 x i8] c"all\00", align 1

; Function Attrs: nounwind sspstrong uwtable
define internal void @compute_stats(ptr noundef %0) #0 {
  %2 = alloca ptr, align 8
  store ptr %0, ptr %2, align 8, !tbaa !9
  %3 = load ptr, ptr %2, align 8, !tbaa !9
  %4 = getelementptr inbounds nuw %struct.subframe_stats_t, ptr %3, i32 0, i32 4
  %5 = load double, ptr %4, align 8, !tbaa !16
  %6 = load ptr, ptr %2, align 8, !tbaa !9
  %7 = getelementptr inbounds nuw %struct.subframe_stats_t, ptr %6, i32 0, i32 3
  %8 = load i32, ptr %7, align 8, !tbaa !15
  %9 = uitofp i32 %8 to double
  %10 = fdiv double %5, %9
  %11 = load ptr, ptr %2, align 8, !tbaa !9
  %12 = getelementptr inbounds nuw %struct.subframe_stats_t, ptr %11, i32 0, i32 7
  store double %10, ptr %12, align 8, !tbaa !57
  %13 = load ptr, ptr %2, align 8, !tbaa !9
  %14 = getelementptr inbounds nuw %struct.subframe_stats_t, ptr %13, i32 0, i32 5
  %15 = load double, ptr %14, align 8, !tbaa !17
  %16 = load ptr, ptr %2, align 8, !tbaa !9
  %17 = getelementptr inbounds nuw %struct.subframe_stats_t, ptr %16, i32 0, i32 4
  %18 = load double, ptr %17, align 8, !tbaa !16
  %19 = load ptr, ptr %2, align 8, !tbaa !9
  %20 = getelementptr inbounds nuw %struct.subframe_stats_t, ptr %19, i32 0, i32 4
  %21 = load double, ptr %20, align 8, !tbaa !16
  %22 = fmul double %18, %21
  %23 = load ptr, ptr %2, align 8, !tbaa !9
  %24 = getelementptr inbounds nuw %struct.subframe_stats_t, ptr %23, i32 0, i32 3
  %25 = load i32, ptr %24, align 8, !tbaa !15
  %26 = uitofp i32 %25 to double
  %27 = fdiv double %22, %26
  %28 = fsub double %15, %27
  %29 = load ptr, ptr %2, align 8, !tbaa !9
  %30 = getelementptr inbounds nuw %struct.subframe_stats_t, ptr %29, i32 0, i32 3
  %31 = load i32, ptr %30, align 8, !tbaa !15
  %32 = uitofp i32 %31 to double
  %33 = fdiv double %28, %32
  %34 = load ptr, ptr %2, align 8, !tbaa !9
  %35 = getelementptr inbounds nuw %struct.subframe_stats_t, ptr %34, i32 0, i32 6
  store double %33, ptr %35, align 8, !tbaa !58
  %36 = load ptr, ptr %2, align 8, !tbaa !9
  %37 = getelementptr inbounds nuw %struct.subframe_stats_t, ptr %36, i32 0, i32 6
  %38 = load double, ptr %37, align 8, !tbaa !58
  %39 = call double @sqrt(double noundef %38) #6, !tbaa !18
  %40 = load ptr, ptr %2, align 8, !tbaa !9
  %41 = getelementptr inbounds nuw %struct.subframe_stats_t, ptr %40, i32 0, i32 8
  store double %39, ptr %41, align 8, !tbaa !59
  ret void
}

; Function Attrs: nounwind sspstrong uwtable
define dso_local void @flac__analyze_finish(i64 %0) #0 {
  %2 = alloca %struct.analysis_options, align 4
  store i64 %0, ptr %2, align 4
  %3 = getelementptr inbounds nuw %struct.analysis_options, ptr %2, i32 0, i32 1
  %4 = load i32, ptr %3, align 4, !tbaa !4
  %5 = icmp ne i32 %4, 0
  br i1 %5, label %6, label %11

6:                                                ; preds = %1
  %7 = load i32, ptr getelementptr inbounds nuw (%struct.subframe_stats_t, ptr @all_, i32 0, i32 3), align 8, !tbaa !15
  %8 = icmp ugt i32 %7, 0
  br i1 %8, label %9, label %11

9:                                                ; preds = %6
  call void @compute_stats(ptr noundef @all_)
  %10 = call i32 @dump_stats(ptr noundef @all_, ptr noundef @.str.15)
  br label %11

11:                                               ; preds = %9, %6, %1
  ret void
}