; Function Attrs: nounwind sspstrong uwtable
define dso_local void @flac__analyze_finish(i64 %0) local_unnamed_addr #1 {
  %2 = icmp ugt i64 %0, 4294967295
  %3 = load i32, ptr getelementptr inbounds nuw (i8, ptr @all_, i64 524288), align 8
  %4 = icmp ne i32 %3, 0
  %or.cond = select i1 %2, i1 %4, i1 false
  br i1 %or.cond, label %5, label %15

5:                                                ; preds = %1
  %6 = load double, ptr getelementptr inbounds nuw (i8, ptr @all_, i64 524296), align 8, !tbaa !49
  %7 = uitofp i32 %3 to double
  %8 = fdiv double %6, %7
  store double %8, ptr getelementptr inbounds nuw (i8, ptr @all_, i64 524320), align 8, !tbaa !50
  %9 = load double, ptr getelementptr inbounds nuw (i8, ptr @all_, i64 524304), align 8, !tbaa !47
  %10 = fmul double %6, %6
  %11 = fdiv double %10, %7
  %12 = fsub double %9, %11
  %13 = fdiv double %12, %7
  store double %13, ptr getelementptr inbounds nuw (i8, ptr @all_, i64 524312), align 8, !tbaa !51
  %14 = tail call double @sqrt(double noundef %13) #10, !tbaa !32
  store double %14, ptr getelementptr inbounds nuw (i8, ptr @all_, i64 524328), align 8, !tbaa !52
  tail call fastcc void @dump_stats(ptr noundef nonnull @all_, ptr noundef nonnull @.str.15)
  br label %15

15:                                               ; preds = %5, %1
  ret void
}